target datalayout = "e-m:e-p270:32:32-p271:32:32-p272:64:64-i64:64-i128:128-f80:128-n8:16:32:64-S128"
target triple = "x86_64-pc-linux-gnu"

%struct.dt_camera_shared_t = type { ptr }

@.str.22 = private unnamed_addr constant [21 x i8] c"session/use_filename\00", align 1

; Function Attrs: nounwind uwtable
define internal ptr @_camera_request_image_filename(ptr noundef %0, ptr noundef %1, ptr noundef %2, ptr noundef %3) #0 {
  %5 = alloca ptr, align 8
  %6 = alloca ptr, align 8
  %7 = alloca ptr, align 8
  %8 = alloca ptr, align 8
  %9 = alloca ptr, align 8
  %10 = alloca ptr, align 8
  %11 = alloca ptr, align 8
  %12 = alloca i32, align 4
  %13 = alloca i32, align 4
  store ptr %0, ptr %6, align 8, !tbaa !70
  store ptr %1, ptr %7, align 8, !tbaa !6
  store ptr %2, ptr %8, align 8, !tbaa !98
  store ptr %3, ptr %9, align 8, !tbaa !64
  call void @llvm.lifetime.start.p0(i64 8, ptr %10) #7
  call void @llvm.lifetime.start.p0(i64 8, ptr %11) #7
  %14 = load ptr, ptr %9, align 8, !tbaa !64
  store ptr %14, ptr %11, align 8, !tbaa !100
  call void @llvm.lifetime.start.p0(i64 4, ptr %12) #7
  %15 = call i32 @dt_conf_get_bool(ptr noundef @.str.22)
  store i32 %15, ptr %12, align 4, !tbaa !11
  %16 = load ptr, ptr %11, align 8, !tbaa !100
  %17 = getelementptr inbounds nuw %struct.dt_camera_shared_t, ptr %16, i32 0, i32 0
  %18 = load ptr, ptr %17, align 8, !tbaa !102
  %19 = load ptr, ptr %7, align 8, !tbaa !6
  call void @dt_import_session_set_filename(ptr noundef %18, ptr noundef %19)
  %20 = load ptr, ptr %11, align 8, !tbaa !100
  %21 = getelementptr inbounds nuw %struct.dt_camera_shared_t, ptr %20, i32 0, i32 0
  %22 = load ptr, ptr %21, align 8, !tbaa !102
  %23 = load ptr, ptr %8, align 8, !tbaa !98
  call void @dt_import_session_set_exif_basic_info(ptr noundef %22, ptr noundef %23)
  %24 = load ptr, ptr %11, align 8, !tbaa !100
  %25 = getelementptr inbounds nuw %struct.dt_camera_shared_t, ptr %24, i32 0, i32 0
  %26 = load ptr, ptr %25, align 8, !tbaa !102
  %27 = load i32, ptr %12, align 4, !tbaa !11
  %28 = call ptr @dt_import_session_filename(ptr noundef %26, i32 noundef %27)
  store ptr %28, ptr %10, align 8, !tbaa !6
  %29 = load ptr, ptr %10, align 8, !tbaa !6
  %30 = icmp eq ptr %29, null
  br i1 %30, label %31, label %32

31:                                               ; preds = %4
  store ptr null, ptr %5, align 8
  store i32 1, ptr %13, align 4
  br label %35

32:                                               ; preds = %4
  %33 = load ptr, ptr %10, align 8, !tbaa !6
  %34 = call noalias ptr @g_strdup(ptr noundef %33)
  store ptr %34, ptr %5, align 8
  store i32 1, ptr %13, align 4
  br label %35

35:                                               ; preds = %32, %31
  call void @llvm.lifetime.end.p0(i64 4, ptr %12) #7
  call void @llvm.lifetime.end.p0(i64 8, ptr %11) #7
  call void @llvm.lifetime.end.p0(i64 8, ptr %10) #7
  %36 = load ptr, ptr %5, align 8
  ret ptr %36
}