; Function Attrs: nounwind uwtable
define internal noalias ptr @_camera_request_image_filename(ptr readnone captures(none) %0, ptr noundef %1, ptr noundef %2, ptr noundef readonly captures(none) %3) #0 {
  %5 = tail call i32 @dt_conf_get_bool(ptr noundef nonnull @.str.22) #10
  %6 = load ptr, ptr %3, align 8, !tbaa !87
  tail call void @dt_import_session_set_filename(ptr noundef %6, ptr noundef %1) #10
  %7 = load ptr, ptr %3, align 8, !tbaa !87
  tail call void @dt_import_session_set_exif_basic_info(ptr noundef %7, ptr noundef %2) #10
  %8 = load ptr, ptr %3, align 8, !tbaa !87
  %9 = tail call ptr @dt_import_session_filename(ptr noundef %8, i32 noundef %5) #10
  %10 = icmp eq ptr %9, null
  br i1 %10, label %13, label %11

11:                                               ; preds = %4
  %12 = tail call noalias ptr @g_strdup(ptr noundef nonnull %9) #10
  br label %13

13:                                               ; preds = %4, %11
  %.0 = phi ptr [ %12, %11 ], [ null, %4 ]
  ret ptr %.0
}